target datalayout = "e-m:e-p270:32:32-p271:32:32-p272:64:64-i64:64-i128:128-f80:128-n8:16:32:64-S128"
target triple = "x86_64-pc-linux-gnu"

%struct.sha256_context = type { [8 x i32], i64, [64 x i8] }

; Function Attrs: mustprogress uwtable
define internal void @_ZL11hmac_sha256PKhmS0_mPhP14sha256_contextPbS3_S4_(ptr noundef %0, i64 noundef %1, ptr noundef %2, i64 noundef %3, ptr noundef %4, ptr noundef %5, ptr noundef %6, ptr noundef %7, ptr noundef %8) #1 {
  %10 = alloca ptr, align 8
  %11 = alloca i64, align 8
  %12 = alloca ptr, align 8
  %13 = alloca i64, align 8
  %14 = alloca ptr, align 8
  %15 = alloca ptr, align 8
  %16 = alloca ptr, align 8
  %17 = alloca ptr, align 8
  %18 = alloca ptr, align 8
  %19 = alloca i64, align 8
  %20 = alloca [32 x i8], align 16
  %21 = alloca %struct.sha256_context, align 8
  %22 = alloca [64 x i8], align 16
  %23 = alloca %struct.sha256_context, align 8
  %24 = alloca i64, align 8
  %25 = alloca i64, align 8
  %26 = alloca [32 x i8], align 16
  %27 = alloca %struct.sha256_context, align 8
  %28 = alloca i64, align 8
  %29 = alloca i64, align 8
  store ptr %0, ptr %10, align 8
  store i64 %1, ptr %11, align 8
  store ptr %2, ptr %12, align 8
  store i64 %3, ptr %13, align 8
  store ptr %4, ptr %14, align 8
  store ptr %5, ptr %15, align 8
  store ptr %6, ptr %16, align 8
  store ptr %7, ptr %17, align 8
  store ptr %8, ptr %18, align 8
  store i64 64, ptr %19, align 8
  %30 = load i64, ptr %11, align 8
  %31 = icmp ugt i64 %30, 64
  br i1 %31, label %32, label %37

32:                                               ; preds = %9
  call void @_Z11sha256_initP14sha256_context(ptr noundef %21)
  %33 = load ptr, ptr %10, align 8
  %34 = load i64, ptr %11, align 8
  call void @_Z14sha256_processP14sha256_contextPKvm(ptr noundef %21, ptr noundef %33, i64 noundef %34)
  %35 = getelementptr inbounds [32 x i8], ptr %20, i64 0, i64 0
  call void @_Z11sha256_doneP14sha256_contextPh(ptr noundef %21, ptr noundef %35)
  %36 = getelementptr inbounds [32 x i8], ptr %20, i64 0, i64 0
  store ptr %36, ptr %10, align 8
  store i64 32, ptr %11, align 8
  br label %37

37:                                               ; preds = %32, %9
  %38 = load ptr, ptr %15, align 8
  %39 = icmp ne ptr %38, null
  br i1 %39, label %40, label %46

40:                                               ; preds = %37
  %41 = load ptr, ptr %16, align 8
  %42 = load i8, ptr %41, align 1
  %43 = trunc i8 %42 to i1
  br i1 %43, label %44, label %46

44:                                               ; preds = %40
  %45 = load ptr, ptr %15, align 8
  call void @llvm.memcpy.p0.p0.i64(ptr align 8 %23, ptr align 8 %45, i64 104, i1 false)
  br label %77

46:                                               ; preds = %40, %37
  store i64 0, ptr %24, align 8
  br label %47

47:                                               ; preds = %61, %46
  %48 = load i64, ptr %24, align 8
  %49 = load i64, ptr %11, align 8
  %50 = icmp ult i64 %48, %49
  br i1 %50, label %51, label %64

51:                                               ; preds = %47
  %52 = load ptr, ptr %10, align 8
  %53 = load i64, ptr %24, align 8
  %54 = getelementptr inbounds i8, ptr %52, i64 %53
  %55 = load i8, ptr %54, align 1
  %56 = zext i8 %55 to i32
  %57 = xor i32 %56, 54
  %58 = trunc i32 %57 to i8
  %59 = load i64, ptr %24, align 8
  %60 = getelementptr inbounds [64 x i8], ptr %22, i64 0, i64 %59
  store i8 %58, ptr %60, align 1
  br label %61

61:                                               ; preds = %51
  %62 = load i64, ptr %24, align 8
  %63 = add i64 %62, 1
  store i64 %63, ptr %24, align 8
  br label %47, !llvm.loop !24

64:                                               ; preds = %47
  %65 = load i64, ptr %11, align 8
  store i64 %65, ptr %25, align 8
  br label %66

66:                                               ; preds = %72, %64
  %67 = load i64, ptr %25, align 8
  %68 = icmp ult i64 %67, 64
  br i1 %68, label %69, label %75

69:                                               ; preds = %66
  %70 = load i64, ptr %25, align 8
  %71 = getelementptr inbounds [64 x i8], ptr %22, i64 0, i64 %70
  store i8 54, ptr %71, align 1
  br label %72

72:                                               ; preds = %69
  %73 = load i64, ptr %25, align 8
  %74 = add i64 %73, 1
  store i64 %74, ptr %25, align 8
  br label %66, !llvm.loop !25

75:                                               ; preds = %66
  call void @_Z11sha256_initP14sha256_context(ptr noundef %23)
  %76 = getelementptr inbounds [64 x i8], ptr %22, i64 0, i64 0
  call void @_Z14sha256_processP14sha256_contextPKvm(ptr noundef %23, ptr noundef %76, i64 noundef 64)
  br label %77

77:                                               ; preds = %75, %44
  %78 = load ptr, ptr %15, align 8
  %79 = icmp ne ptr %78, null
  br i1 %79, label %80, label %87

80:                                               ; preds = %77
  %81 = load ptr, ptr %16, align 8
  %82 = load i8, ptr %81, align 1
  %83 = trunc i8 %82 to i1
  br i1 %83, label %87, label %84

84:                                               ; preds = %80
  %85 = load ptr, ptr %15, align 8
  call void @llvm.memcpy.p0.p0.i64(ptr align 8 %85, ptr align 8 %23, i64 104, i1 false)
  %86 = load ptr, ptr %16, align 8
  store i8 1, ptr %86, align 1
  br label %87

87:                                               ; preds = %84, %80, %77
  %88 = load ptr, ptr %12, align 8
  %89 = load i64, ptr %13, align 8
  call void @_Z14sha256_processP14sha256_contextPKvm(ptr noundef %23, ptr noundef %88, i64 noundef %89)
  %90 = getelementptr inbounds [32 x i8], ptr %26, i64 0, i64 0
  call void @_Z11sha256_doneP14sha256_contextPh(ptr noundef %23, ptr noundef %90)
  %91 = load ptr, ptr %17, align 8
  %92 = icmp ne ptr %91, null
  br i1 %92, label %93, label %99

93:                                               ; preds = %87
  %94 = load ptr, ptr %18, align 8
  %95 = load i8, ptr %94, align 1
  %96 = trunc i8 %95 to i1
  br i1 %96, label %97, label %99

97:                                               ; preds = %93
  %98 = load ptr, ptr %17, align 8
  call void @llvm.memcpy.p0.p0.i64(ptr align 8 %27, ptr align 8 %98, i64 104, i1 false)
  br label %130

99:                                               ; preds = %93, %87
  store i64 0, ptr %28, align 8
  br label %100

100:                                              ; preds = %114, %99
  %101 = load i64, ptr %28, align 8
  %102 = load i64, ptr %11, align 8
  %103 = icmp ult i64 %101, %102
  br i1 %103, label %104, label %117

104:                                              ; preds = %100
  %105 = load ptr, ptr %10, align 8
  %106 = load i64, ptr %28, align 8
  %107 = getelementptr inbounds i8, ptr %105, i64 %106
  %108 = load i8, ptr %107, align 1
  %109 = zext i8 %108 to i32
  %110 = xor i32 %109, 92
  %111 = trunc i32 %110 to i8
  %112 = load i64, ptr %28, align 8
  %113 = getelementptr inbounds [64 x i8], ptr %22, i64 0, i64 %112
  store i8 %111, ptr %113, align 1
  br label %114

114:                                              ; preds = %104
  %115 = load i64, ptr %28, align 8
  %116 = add i64 %115, 1
  store i64 %116, ptr %28, align 8
  br label %100, !llvm.loop !26

117:                                              ; preds = %100
  %118 = load i64, ptr %11, align 8
  store i64 %118, ptr %29, align 8
  br label %119

119:                                              ; preds = %125, %117
  %120 = load i64, ptr %29, align 8
  %121 = icmp ult i64 %120, 64
  br i1 %121, label %122, label %128

122:                                              ; preds = %119
  %123 = load i64, ptr %29, align 8
  %124 = getelementptr inbounds [64 x i8], ptr %22, i64 0, i64 %123
  store i8 92, ptr %124, align 1
  br label %125

125:                                              ; preds = %122
  %126 = load i64, ptr %29, align 8
  %127 = add i64 %126, 1
  store i64 %127, ptr %29, align 8
  br label %119, !llvm.loop !27

128:                                              ; preds = %119
  call void @_Z11sha256_initP14sha256_context(ptr noundef %27)
  %129 = getelementptr inbounds [64 x i8], ptr %22, i64 0, i64 0
  call void @_Z14sha256_processP14sha256_contextPKvm(ptr noundef %27, ptr noundef %129, i64 noundef 64)
  br label %130

130:                                              ; preds = %128, %97
  %131 = load ptr, ptr %17, align 8
  %132 = icmp ne ptr %131, null
  br i1 %132, label %133, label %140

133:                                              ; preds = %130
  %134 = load ptr, ptr %18, align 8
  %135 = load i8, ptr %134, align 1
  %136 = trunc i8 %135 to i1
  br i1 %136, label %140, label %137

137:                                              ; preds = %133
  %138 = load ptr, ptr %17, align 8
  call void @llvm.memcpy.p0.p0.i64(ptr align 8 %138, ptr align 8 %27, i64 104, i1 false)
  %139 = load ptr, ptr %18, align 8
  store i8 1, ptr %139, align 1
  br label %140

140:                                              ; preds = %137, %133, %130
  %141 = getelementptr inbounds [32 x i8], ptr %26, i64 0, i64 0
  call void @_Z14sha256_processP14sha256_contextPKvm(ptr noundef %27, ptr noundef %141, i64 noundef 32)
  %142 = load ptr, ptr %14, align 8
  call void @_Z11sha256_doneP14sha256_contextPh(ptr noundef %27, ptr noundef %142)
  ret void
}