; Function Attrs: mustprogress uwtable
define internal fastcc void @_ZL11hmac_sha256PKhmS0_mPhP14sha256_contextPbS3_S4_(ptr noundef %0, i64 noundef %1, ptr noundef %2, i64 noundef %3, ptr noundef nonnull %4, ptr noundef %5, ptr noundef captures(none) %6, ptr noundef %7, ptr noundef captures(none) %8) unnamed_addr #1 {
  %10 = alloca [32 x i8], align 16
  %11 = alloca %struct.sha256_context, align 8
  %12 = alloca [64 x i8], align 16
  %13 = alloca %struct.sha256_context, align 8
  %14 = alloca [32 x i8], align 16
  %15 = alloca %struct.sha256_context, align 8
  %16 = icmp ugt i64 %1, 64
  br i1 %16, label %17, label %18

17:                                               ; preds = %9
  call void @_Z11sha256_initP14sha256_context(ptr noundef nonnull %11)
  call void @_Z14sha256_processP14sha256_contextPKvm(ptr noundef nonnull %11, ptr noundef %0, i64 noundef %1)
  call void @_Z11sha256_doneP14sha256_contextPh(ptr noundef nonnull %11, ptr noundef nonnull %10)
  br label %18

18:                                               ; preds = %17, %9
  %.043 = phi i64 [ 32, %17 ], [ %1, %9 ]
  %.042 = phi ptr [ %10, %17 ], [ %0, %9 ]
  %.not = icmp eq ptr %5, null
  br i1 %.not, label %22, label %19

19:                                               ; preds = %18
  %20 = load i8, ptr %6, align 1
  %21 = trunc i8 %20 to i1
  br i1 %21, label %.thread, label %22

.thread:                                          ; preds = %19
  call void @llvm.memcpy.p0.p0.i64(ptr noundef nonnull align 8 dereferenceable(104) %13, ptr noundef nonnull align 8 dereferenceable(104) %5, i64 104, i1 false)
  br label %30

22:                                               ; preds = %19, %18
  %.not61 = icmp eq i64 %.043, 0
  br i1 %.not61, label %.lr.ph54.preheader, label %.lr.ph

.preheader51:                                     ; preds = %.lr.ph
  %23 = icmp samesign ult i64 %.043, 64
  br i1 %23, label %.lr.ph54.preheader, label %._crit_edge

.lr.ph54.preheader:                               ; preds = %22, %.preheader51
  %scevgep = getelementptr i8, ptr %12, i64 %.043
  %24 = sub nuw nsw i64 64, %.043
  call void @llvm.memset.p0.i64(ptr align 1 %scevgep, i8 54, i64 %24, i1 false)
  br label %._crit_edge

.lr.ph:                                           ; preds = %22, %.lr.ph
  %.04152 = phi i64 [ %29, %.lr.ph ], [ 0, %22 ]
  %25 = getelementptr inbounds nuw i8, ptr %.042, i64 %.04152
  %26 = load i8, ptr %25, align 1
  %27 = xor i8 %26, 54
  %28 = getelementptr inbounds nuw [64 x i8], ptr %12, i64 0, i64 %.04152
  store i8 %27, ptr %28, align 1
  %29 = add nuw nsw i64 %.04152, 1
  %exitcond.not = icmp eq i64 %29, %.043
  br i1 %exitcond.not, label %.preheader51, label %.lr.ph, !llvm.loop !23

._crit_edge:                                      ; preds = %.lr.ph54.preheader, %.preheader51
  call void @_Z11sha256_initP14sha256_context(ptr noundef nonnull %13)
  call void @_Z14sha256_processP14sha256_contextPKvm(ptr noundef nonnull %13, ptr noundef nonnull %12, i64 noundef 64)
  br i1 %.not, label %34, label %._crit_edge._crit_edge

._crit_edge._crit_edge:                           ; preds = %._crit_edge
  %.pre = load i8, ptr %6, align 1
  br label %30

30:                                               ; preds = %._crit_edge._crit_edge, %.thread
  %31 = phi i8 [ %.pre, %._crit_edge._crit_edge ], [ %20, %.thread ]
  %32 = trunc i8 %31 to i1
  br i1 %32, label %34, label %33

33:                                               ; preds = %30
  call void @llvm.memcpy.p0.p0.i64(ptr noundef nonnull align 8 dereferenceable(104) %5, ptr noundef nonnull align 8 dereferenceable(104) %13, i64 104, i1 false)
  store i8 1, ptr %6, align 1
  br label %34

34:                                               ; preds = %33, %30, %._crit_edge
  call void @_Z14sha256_processP14sha256_contextPKvm(ptr noundef nonnull %13, ptr noundef %2, i64 noundef %3)
  call void @_Z11sha256_doneP14sha256_contextPh(ptr noundef nonnull %13, ptr noundef nonnull %14)
  %.not49 = icmp eq ptr %7, null
  br i1 %.not49, label %38, label %35

35:                                               ; preds = %34
  %36 = load i8, ptr %8, align 1
  %37 = trunc i8 %36 to i1
  br i1 %37, label %.thread50, label %38

.thread50:                                        ; preds = %35
  call void @llvm.memcpy.p0.p0.i64(ptr noundef nonnull align 8 dereferenceable(104) %15, ptr noundef nonnull align 8 dereferenceable(104) %7, i64 104, i1 false)
  br label %46

38:                                               ; preds = %35, %34
  %.not62 = icmp eq i64 %.043, 0
  br i1 %.not62, label %.lr.ph59.preheader, label %.lr.ph57

.preheader:                                       ; preds = %.lr.ph57
  %39 = icmp samesign ult i64 %.043, 64
  br i1 %39, label %.lr.ph59.preheader, label %._crit_edge60

.lr.ph59.preheader:                               ; preds = %38, %.preheader
  %scevgep64 = getelementptr i8, ptr %12, i64 %.043
  %40 = sub nuw nsw i64 64, %.043
  call void @llvm.memset.p0.i64(ptr align 1 %scevgep64, i8 92, i64 %40, i1 false)
  br label %._crit_edge60

.lr.ph57:                                         ; preds = %38, %.lr.ph57
  %.03955 = phi i64 [ %45, %.lr.ph57 ], [ 0, %38 ]
  %41 = getelementptr inbounds nuw i8, ptr %.042, i64 %.03955
  %42 = load i8, ptr %41, align 1
  %43 = xor i8 %42, 92
  %44 = getelementptr inbounds nuw [64 x i8], ptr %12, i64 0, i64 %.03955
  store i8 %43, ptr %44, align 1
  %45 = add nuw nsw i64 %.03955, 1
  %exitcond63.not = icmp eq i64 %45, %.043
  br i1 %exitcond63.not, label %.preheader, label %.lr.ph57, !llvm.loop !24

._crit_edge60:                                    ; preds = %.lr.ph59.preheader, %.preheader
  call void @_Z11sha256_initP14sha256_context(ptr noundef nonnull %15)
  call void @_Z14sha256_processP14sha256_contextPKvm(ptr noundef nonnull %15, ptr noundef nonnull %12, i64 noundef 64)
  br i1 %.not49, label %50, label %._crit_edge60._crit_edge

._crit_edge60._crit_edge:                         ; preds = %._crit_edge60
  %.pre65 = load i8, ptr %8, align 1
  br label %46

46:                                               ; preds = %._crit_edge60._crit_edge, %.thread50
  %47 = phi i8 [ %.pre65, %._crit_edge60._crit_edge ], [ %36, %.thread50 ]
  %48 = trunc i8 %47 to i1
  br i1 %48, label %50, label %49

49:                                               ; preds = %46
  call void @llvm.memcpy.p0.p0.i64(ptr noundef nonnull align 8 dereferenceable(104) %7, ptr noundef nonnull align 8 dereferenceable(104) %15, i64 104, i1 false)
  store i8 1, ptr %8, align 1
  br label %50

50:                                               ; preds = %49, %46, %._crit_edge60
  call void @_Z14sha256_processP14sha256_contextPKvm(ptr noundef nonnull %15, ptr noundef nonnull %14, i64 noundef 32)
  call void @_Z11sha256_doneP14sha256_contextPh(ptr noundef nonnull %15, ptr noundef nonnull %4)
  ret void
}